; Function Attrs: mustprogress uwtable
define void @_ZN3zmq5req_t16xpipe_terminatedEPNS_6pipe_tE(ptr noundef nonnull align 8 dereferenceable(1960) %this, ptr noundef %pipe_) unnamed_addr #0 align 2 {
entry:
  %_reply_pipe = getelementptr inbounds i8, ptr %this, i64 1936
  %0 = load ptr, ptr %_reply_pipe, align 8
  %cmp = icmp eq ptr %0, %pipe_
  br i1 %cmp, label %if.then, label %if.end

if.then:                                          ; preds = %entry
  store ptr null, ptr %_reply_pipe, align 8
  br label %if.end

if.end:                                           ; preds = %if.then, %entry
  tail call void @_ZN3zmq8dealer_t16xpipe_terminatedEPNS_6pipe_tE(ptr noundef nonnull align 8 dereferenceable(1929) %this, ptr noundef %pipe_)
  ret void
}